; ModuleID = '29/770.c'
source_filename = "29/770.c"
target datalayout = "e-m:e-p270:32:32-p271:32:32-p272:64:64-i64:64-f80:128-n8:16:32:64-S128"
target triple = "x86_64-pc-linux-gnu"

@.str = private unnamed_addr constant [3 x i8] c"%d\00", align 1
@.str.1 = private unnamed_addr constant [6 x i8] c"%.3f\0A\00", align 1

; Function Attrs: noinline nounwind uwtable
define dso_local i32 @main() #0 {
  %1 = alloca i32, align 4
  %2 = alloca i32, align 4
  %3 = alloca i32, align 4
  %4 = alloca i32, align 4
  %5 = alloca i32, align 4
  %6 = alloca [9999 x float], align 16
  %7 = alloca [9999 x float], align 16
  %8 = alloca float, align 4
  store i32 0, i32* %1, align 4
  %9 = call i32 (i8*, ...) @__isoc99_scanf(i8* getelementptr inbounds ([3 x i8], [3 x i8]* @.str, i64 0, i64 0), i32* %2)
  store i32 0, i32* %5, align 4
  br label %10

10:                                               ; preds = %63, %0
  %11 = load i32, i32* %5, align 4
  %12 = load i32, i32* %2, align 4
  %13 = icmp slt i32 %11, %12
  br i1 %13, label %14, label %66

14:                                               ; preds = %10
  %15 = call i32 (i8*, ...) @__isoc99_scanf(i8* getelementptr inbounds ([3 x i8], [3 x i8]* @.str, i64 0, i64 0), i32* %3)
  %16 = getelementptr inbounds [9999 x float], [9999 x float]* %7, i64 0, i64 0
  store float 1.000000e+00, float* %16, align 16
  %17 = getelementptr inbounds [9999 x float], [9999 x float]* %7, i64 0, i64 1
  store float 2.000000e+00, float* %17, align 4
  store float 0.000000e+00, float* %8, align 4
  store i32 0, i32* %4, align 4
  br label %18

18:                                               ; preds = %56, %14
  %19 = load i32, i32* %4, align 4
  %20 = load i32, i32* %3, align 4
  %21 = icmp slt i32 %19, %20
  br i1 %21, label %22, label %59

22:                                               ; preds = %18
  %23 = load i32, i32* %4, align 4
  %24 = sext i32 %23 to i64
  %25 = getelementptr inbounds [9999 x float], [9999 x float]* %7, i64 0, i64 %24
  %26 = load float, float* %25, align 4
  %27 = load i32, i32* %4, align 4
  %28 = add nsw i32 %27, 1
  %29 = sext i32 %28 to i64
  %30 = getelementptr inbounds [9999 x float], [9999 x float]* %7, i64 0, i64 %29
  %31 = load float, float* %30, align 4
  %32 = fadd float %26, %31
  %33 = load i32, i32* %4, align 4
  %34 = add nsw i32 %33, 2
  %35 = sext i32 %34 to i64
  %36 = getelementptr inbounds [9999 x float], [9999 x float]* %7, i64 0, i64 %35
  store float %32, float* %36, align 4
  %37 = load i32, i32* %4, align 4
  %38 = add nsw i32 %37, 1
  %39 = sext i32 %38 to i64
  %40 = getelementptr inbounds [9999 x float], [9999 x float]* %7, i64 0, i64 %39
  %41 = load float, float* %40, align 4
  %42 = load i32, i32* %4, align 4
  %43 = sext i32 %42 to i64
  %44 = getelementptr inbounds [9999 x float], [9999 x float]* %7, i64 0, i64 %43
  %45 = load float, float* %44, align 4
  %46 = fdiv float %41, %45
  %47 = load i32, i32* %4, align 4
  %48 = sext i32 %47 to i64
  %49 = getelementptr inbounds [9999 x float], [9999 x float]* %6, i64 0, i64 %48
  store float %46, float* %49, align 4
  %50 = load i32, i32* %4, align 4
  %51 = sext i32 %50 to i64
  %52 = getelementptr inbounds [9999 x float], [9999 x float]* %6, i64 0, i64 %51
  %53 = load float, float* %52, align 4
  %54 = load float, float* %8, align 4
  %55 = fadd float %54, %53
  store float %55, float* %8, align 4
  br label %56

56:                                               ; preds = %22
  %57 = load i32, i32* %4, align 4
  %58 = add nsw i32 %57, 1
  store i32 %58, i32* %4, align 4
  br label %18

59:                                               ; preds = %18
  %60 = load float, float* %8, align 4
  %61 = fpext float %60 to double
  %62 = call i32 (i8*, ...) @printf(i8* getelementptr inbounds ([6 x i8], [6 x i8]* @.str.1, i64 0, i64 0), double %61)
  br label %63

63:                                               ; preds = %59
  %64 = load i32, i32* %5, align 4
  %65 = add nsw i32 %64, 1
  store i32 %65, i32* %5, align 4
  br label %10

66:                                               ; preds = %10
  ret i32 0
}

declare dso_local i32 @__isoc99_scanf(i8*, ...) #1

declare dso_local i32 @printf(i8*, ...) #1


!llvm.module.flags = !{!0}
!llvm.ident = !{!1}

!0 = !{i32 1, !"wchar_size", i32 4}
!1 = !{!"clang version 10.0.0-4ubuntu1 "}
